target datalayout = "e-m:e-p270:32:32-p271:32:32-p272:64:64-i64:64-i128:128-f80:128-n8:16:32:64-S128"
target triple = "x86_64-pc-linux-gnu"

%struct.nghttp2_session = type { %struct.nghttp2_map, %struct.nghttp2_outbound_queue, %struct.nghttp2_outbound_queue, %struct.nghttp2_outbound_queue, [8 x %struct.anon], %struct.nghttp2_active_outbound_item, %struct.nghttp2_inbound_frame, %struct.nghttp2_hd_deflater, %struct.nghttp2_hd_inflater, %struct.nghttp2_session_callbacks, %struct.nghttp2_mem, ptr, ptr, %struct.nghttp2_ratelim, i64, i64, i64, i64, i64, i64, i64, i64, i64, i64, i64, i64, i64, i64, i32, i32, i32, i32, i32, i32, i32, i32, i32, i32, i32, i32, i8, %struct.nghttp2_settings_storage, %struct.nghttp2_settings_storage, i32, i32, i32, i8, i8, i8, i8, i8, i8, [32 x i8] }
%struct.nghttp2_map = type { ptr, ptr, i64, i64 }
%struct.nghttp2_outbound_queue = type { ptr, ptr, i64 }
%struct.anon = type { %struct.nghttp2_pq }
%struct.nghttp2_pq = type { ptr, ptr, i64, i64, ptr }
%struct.nghttp2_active_outbound_item = type { ptr, %struct.nghttp2_bufs, i32 }
%struct.nghttp2_bufs = type { ptr, ptr, ptr, i64, i64, i64, i64, i64 }
%struct.nghttp2_inbound_frame = type { %union.nghttp2_frame, %union.nghttp2_ext_frame_payload, ptr, %struct.nghttp2_buf, %struct.nghttp2_buf, ptr, i64, i64, i64, i64, i32, [32 x i8] }
%union.nghttp2_frame = type { %struct.nghttp2_headers }
%struct.nghttp2_headers = type { %struct.nghttp2_frame_hd, i64, %struct.nghttp2_priority_spec, ptr, i64, i32 }
%struct.nghttp2_frame_hd = type { i64, i32, i8, i8, i8 }
%struct.nghttp2_priority_spec = type { i32, i32, i8 }
%union.nghttp2_ext_frame_payload = type { %struct.nghttp2_ext_altsvc }
%struct.nghttp2_ext_altsvc = type { ptr, i64, ptr, i64 }
%struct.nghttp2_buf = type { ptr, ptr, ptr, ptr, ptr }
%struct.nghttp2_hd_deflater = type { %struct.nghttp2_hd_context, %struct.nghttp2_hd_map, i64, i64, i8 }
%struct.nghttp2_hd_context = type { %struct.nghttp2_hd_ringbuf, ptr, i64, i64, i32, i8 }
%struct.nghttp2_hd_ringbuf = type { ptr, i64, i64, i64 }
%struct.nghttp2_hd_map = type { [128 x ptr] }
%struct.nghttp2_hd_inflater = type { %struct.nghttp2_hd_context, %struct.nghttp2_hd_huff_decode_context, %struct.nghttp2_buf, %struct.nghttp2_buf, ptr, ptr, ptr, ptr, i64, i64, i64, i64, i64, i32, i32, i8, i8, i8 }
%struct.nghttp2_hd_huff_decode_context = type { i16 }
%struct.nghttp2_session_callbacks = type { ptr, ptr, ptr, ptr, ptr, ptr, ptr, ptr, ptr, ptr, ptr, ptr, ptr, ptr, ptr, ptr, ptr, ptr, ptr, ptr, ptr, ptr, ptr, ptr, ptr, ptr, ptr, ptr }
%struct.nghttp2_mem = type { ptr, ptr, ptr, ptr, ptr }
%struct.nghttp2_ratelim = type { i64, i64, i64, i64 }
%struct.nghttp2_settings_storage = type { i32, i32, i32, i32, i32, i32, i32, i32 }
%struct.nghttp2_outbound_item = type { %union.nghttp2_frame, %union.nghttp2_ext_frame_payload, %union.nghttp2_aux_data, i64, ptr, i8 }
%union.nghttp2_aux_data = type { %struct.nghttp2_headers_aux_data }
%struct.nghttp2_headers_aux_data = type { %struct.nghttp2_data_provider_wrap, ptr, i32, i8 }
%struct.nghttp2_data_provider_wrap = type { i32, %union.anon }
%union.anon = type { %struct.anon.0 }
%struct.anon.0 = type { %union.nghttp2_data_source, ptr }
%union.nghttp2_data_source = type { ptr }

; Function Attrs: nounwind uwtable
define i32 @nghttp2_submit_extension(ptr noundef %0, i8 noundef zeroext %1, i8 noundef zeroext %2, i32 noundef %3, ptr noundef %4) #0 {
  %6 = alloca i32, align 4
  %7 = alloca ptr, align 8
  %8 = alloca i8, align 1
  %9 = alloca i8, align 1
  %10 = alloca i32, align 4
  %11 = alloca ptr, align 8
  %12 = alloca i32, align 4
  %13 = alloca ptr, align 8
  %14 = alloca ptr, align 8
  %15 = alloca ptr, align 8
  %16 = alloca i32, align 4
  store ptr %0, ptr %7, align 8, !tbaa !3
  store i8 %1, ptr %8, align 1, !tbaa !13
  store i8 %2, ptr %9, align 1, !tbaa !13
  store i32 %3, ptr %10, align 4, !tbaa !8
  store ptr %4, ptr %11, align 8, !tbaa !10
  call void @llvm.lifetime.start.p0(i64 4, ptr %12) #7
  call void @llvm.lifetime.start.p0(i64 8, ptr %13) #7
  call void @llvm.lifetime.start.p0(i64 8, ptr %14) #7
  call void @llvm.lifetime.start.p0(i64 8, ptr %15) #7
  %17 = load ptr, ptr %7, align 8, !tbaa !3
  %18 = getelementptr inbounds nuw %struct.nghttp2_session, ptr %17, i32 0, i32 10
  store ptr %18, ptr %15, align 8, !tbaa !10
  %19 = load i8, ptr %8, align 1, !tbaa !13
  %20 = zext i8 %19 to i32
  %21 = icmp sle i32 %20, 9
  br i1 %21, label %22, label %23

22:                                               ; preds = %5
  store i32 -501, ptr %6, align 4
  store i32 1, ptr %16, align 4
  br label %62

23:                                               ; preds = %5
  %24 = load ptr, ptr %7, align 8, !tbaa !3
  %25 = getelementptr inbounds nuw %struct.nghttp2_session, ptr %24, i32 0, i32 9
  %26 = getelementptr inbounds nuw %struct.nghttp2_session_callbacks, ptr %25, i32 0, i32 23
  %27 = load ptr, ptr %26, align 8, !tbaa !67
  %28 = icmp ne ptr %27, null
  br i1 %28, label %36, label %29

29:                                               ; preds = %23
  %30 = load ptr, ptr %7, align 8, !tbaa !3
  %31 = getelementptr inbounds nuw %struct.nghttp2_session, ptr %30, i32 0, i32 9
  %32 = getelementptr inbounds nuw %struct.nghttp2_session_callbacks, ptr %31, i32 0, i32 22
  %33 = load ptr, ptr %32, align 8, !tbaa !68
  %34 = icmp ne ptr %33, null
  br i1 %34, label %36, label %35

35:                                               ; preds = %29
  store i32 -519, ptr %6, align 4
  store i32 1, ptr %16, align 4
  br label %62

36:                                               ; preds = %29, %23
  %37 = load ptr, ptr %15, align 8, !tbaa !10
  %38 = call ptr @nghttp2_mem_malloc(ptr noundef %37, i64 noundef 160)
  store ptr %38, ptr %13, align 8, !tbaa !46
  %39 = load ptr, ptr %13, align 8, !tbaa !46
  %40 = icmp eq ptr %39, null
  br i1 %40, label %41, label %42

41:                                               ; preds = %36
  store i32 -901, ptr %6, align 4
  store i32 1, ptr %16, align 4
  br label %62

42:                                               ; preds = %36
  %43 = load ptr, ptr %13, align 8, !tbaa !46
  call void @nghttp2_outbound_item_init(ptr noundef %43)
  %44 = load ptr, ptr %13, align 8, !tbaa !46
  %45 = getelementptr inbounds nuw %struct.nghttp2_outbound_item, ptr %44, i32 0, i32 0
  store ptr %45, ptr %14, align 8, !tbaa !10
  %46 = load ptr, ptr %14, align 8, !tbaa !10
  %47 = load i8, ptr %8, align 1, !tbaa !13
  %48 = load i8, ptr %9, align 1, !tbaa !13
  %49 = load i32, ptr %10, align 4, !tbaa !8
  %50 = load ptr, ptr %11, align 8, !tbaa !10
  call void @nghttp2_frame_extension_init(ptr noundef %46, i8 noundef zeroext %47, i8 noundef zeroext %48, i32 noundef %49, ptr noundef %50)
  %51 = load ptr, ptr %7, align 8, !tbaa !3
  %52 = load ptr, ptr %13, align 8, !tbaa !46
  %53 = call i32 @nghttp2_session_add_item(ptr noundef %51, ptr noundef %52)
  store i32 %53, ptr %12, align 4, !tbaa !8
  %54 = load i32, ptr %12, align 4, !tbaa !8
  %55 = icmp ne i32 %54, 0
  br i1 %55, label %56, label %61

56:                                               ; preds = %42
  %57 = load ptr, ptr %14, align 8, !tbaa !10
  call void @nghttp2_frame_extension_free(ptr noundef %57)
  %58 = load ptr, ptr %15, align 8, !tbaa !10
  %59 = load ptr, ptr %13, align 8, !tbaa !46
  call void @nghttp2_mem_free(ptr noundef %58, ptr noundef %59)
  %60 = load i32, ptr %12, align 4, !tbaa !8
  store i32 %60, ptr %6, align 4
  store i32 1, ptr %16, align 4
  br label %62

61:                                               ; preds = %42
  store i32 0, ptr %6, align 4
  store i32 1, ptr %16, align 4
  br label %62

62:                                               ; preds = %61, %56, %41, %35, %22
  call void @llvm.lifetime.end.p0(i64 8, ptr %15) #7
  call void @llvm.lifetime.end.p0(i64 8, ptr %14) #7
  call void @llvm.lifetime.end.p0(i64 8, ptr %13) #7
  call void @llvm.lifetime.end.p0(i64 4, ptr %12) #7
  %63 = load i32, ptr %6, align 4
  ret i32 %63
}