; Function Attrs: nounwind uwtable
define i32 @nghttp2_submit_extension(ptr noundef %0, i8 noundef zeroext %1, i8 noundef zeroext %2, i32 noundef %3, ptr noundef %4) local_unnamed_addr #0 {
  %6 = getelementptr inbounds nuw i8, ptr %0, i64 2344
  %7 = icmp ult i8 %1, 10
  br i1 %7, label %20, label %8

8:                                                ; preds = %5
  %9 = getelementptr inbounds nuw i8, ptr %0, i64 2304
  %10 = load ptr, ptr %9, align 8, !tbaa !59
  %.not = icmp eq ptr %10, null
  br i1 %.not, label %11, label %14

11:                                               ; preds = %8
  %12 = getelementptr inbounds nuw i8, ptr %0, i64 2296
  %13 = load ptr, ptr %12, align 8, !tbaa !60
  %.not22 = icmp eq ptr %13, null
  br i1 %.not22, label %20, label %14

14:                                               ; preds = %11, %8
  %15 = tail call ptr @nghttp2_mem_malloc(ptr noundef nonnull %6, i64 noundef 160) #8
  %16 = icmp eq ptr %15, null
  br i1 %16, label %20, label %17

17:                                               ; preds = %14
  tail call void @nghttp2_outbound_item_init(ptr noundef nonnull %15) #8
  tail call void @nghttp2_frame_extension_init(ptr noundef nonnull %15, i8 noundef zeroext %1, i8 noundef zeroext %2, i32 noundef %3, ptr noundef %4) #8
  %18 = tail call i32 @nghttp2_session_add_item(ptr noundef nonnull %0, ptr noundef nonnull %15) #8
  %.not23 = icmp eq i32 %18, 0
  br i1 %.not23, label %20, label %19

19:                                               ; preds = %17
  tail call void @nghttp2_frame_extension_free(ptr noundef nonnull %15) #8
  tail call void @nghttp2_mem_free(ptr noundef nonnull %6, ptr noundef nonnull %15) #8
  br label %20

20:                                               ; preds = %17, %14, %11, %5, %19
  %.0 = phi i32 [ %18, %19 ], [ -501, %5 ], [ -519, %11 ], [ -901, %14 ], [ 0, %17 ]
  ret i32 %.0
}